; Function Attrs: mustprogress nofree norecurse nosync nounwind willreturn memory(argmem: read) uwtable
define internal noundef i32 @_ZL20utf8IteratorGetStatePK13UCharIterator(ptr noundef readonly captures(none) %0) #7 {
  %2 = getelementptr inbounds nuw i8, ptr %0, i64 12
  %3 = load i32, ptr %2, align 4, !tbaa !27
  %4 = shl i32 %3, 1
  %5 = getelementptr inbounds nuw i8, ptr %0, i64 24
  %6 = load i32, ptr %5, align 8, !tbaa !39
  %.not = icmp ne i32 %6, 0
  %7 = zext i1 %.not to i32
  %spec.select = or disjoint i32 %4, %7
  ret i32 %spec.select
}